Certificate:
    Data:
        Version: 3 (0x2)
        Serial Number: 1 (0x1)
        Signature Algorithm: sha256WithRSAEncryption
        Issuer: C = CH, L = Bern, O = SBB, CN = www.sbb.ch
        Validity
            Not Before: May 10 11:20:12 2023 GMT
            Not After : Feb  3 11:20:12 2026 GMT
        Subject: C = CH, L = Bern, O = SBB, CN = www.sbb.ch
        Subject Public Key Info:
            Public Key Algorithm: rsaEncryption
                RSA Public-Key: (2048 bit)
                Modulus:
                    00:c8:93:b2:4b:01:36:83:e2:51:b2:d0:43:23:1c:
                    ee:ac:0b:d1:de:ab:53:d1:3f:6c:31:5c:d9:f6:28:
                    28:58:96:76:bf:94:ea:a6:c6:cc:c8:02:66:93:ac:
                    bd:b8:c1:73:2d:e3:6c:e8:dc:2e:25:77:38:54:8c:
                    39:9f:46:76:53:6b:48:98:37:2a:7c:8e:37:4b:66:
                    21:f3:ff:b1:48:3d:f7:f8:e1:65:94:7c:f0:06:4d:
                    b9:12:c9:df:6b:a2:4d:14:78:d7:9e:e3:eb:98:ee:
                    23:47:91:76:ad:82:5c:e1:67:f5:86:38:08:3a:1f:
                    65:a0:31:cb:4f:67:5d:02:d5:66:eb:b3:a7:86:f3:
                    2c:28:70:8a:ee:b9:5d:9d:58:45:91:95:a1:26:82:
                    d4:9b:cb:92:fe:39:62:28:3a:31:1e:57:1f:0c:df:
                    d6:f4:2c:22:2a:e5:92:d1:84:e1:c0:b7:3b:56:42:
                    dd:6c:8c:bc:a0:24:60:4d:2f:57:59:a0:0f:aa:03:
                    8a:aa:7f:51:d7:0c:4f:f9:e4:0d:3f:bd:bb:4a:fc:
                    07:83:3f:86:9e:11:02:44:81:b8:20:b7:04:d4:49:
                    30:0f:15:5a:d4:28:48:f3:a2:f0:e3:90:69:3c:0a:
                    65:f2:b9:36:30:b6:55:33:17:4c:5e:47:6e:ef:24:
                    7a:7f
                Exponent: 65537 (0x10001)
        X509v3 extensions:
            X509v3 Authority Key Identifier: 
                keyid:CE:9B:C0:54:59:FC:D0:9C:FA:8F:C7:A6:0A:4D:E5:29:7F:CC:EE:7C

            X509v3 Basic Constraints: 
                CA:FALSE
            X509v3 Key Usage: 
                Digital Signature, Non Repudiation, Key Encipherment, Data Encipherment
    Signature Algorithm: sha256WithRSAEncryption
         43:e5:f7:5f:60:9e:7c:d4:98:d9:46:75:3f:b9:a5:a0:9d:0c:
         bc:24:77:31:e4:7a:82:2f:70:b7:b5:8c:d1:3c:eb:da:0b:8c:
         4f:1a:04:a5:98:69:f2:a1:07:92:2c:ab:ee:ce:2f:26:67:ab:
         df:c2:40:88:0e:a5:90:21:ef:e3:2d:48:f8:ad:74:09:e0:7f:
         c7:4b:63:4b:1c:35:9d:1b:b5:6e:a1:b6:1d:0f:e5:78:7c:6d:
         37:77:dd:69:f7:6c:3d:b3:e5:bb:ee:e9:b6:08:dc:63:b5:ce:
         48:08:bb:1b:2c:74:e7:ae:8b:ac:35:c0:cc:c3:38:7a:02:fa:
         d5:ad:7e:dd:94:b3:6f:f7:97:03:7e:78:ac:a2:73:e7:c6:1d:
         d1:04:62:c7:7e:7b:66:20:b7:bc:08:6b:50:44:c7:60:1b:ad:
         02:01:0f:a8:05:3b:9a:ed:2c:c5:af:ac:3c:7f:2f:9c:df:47:
         85:dd:7d:50:10:88:c2:7a:ae:cc:ca:cb:ed:b2:3f:14:fd:de:
         a9:f2:56:4d:7d:b4:48:c5:6e:7a:db:e4:8b:b7:35:c3:d5:da:
         62:43:ca:dd:f2:2d:ca:a8:40:5c:85:cf:e9:e9:fe:c1:f7:17:
         35:8e:51:4b:16:a6:80:ab:9c:be:b5:f9:aa:d4:7a:ed:5f:24:
         78:5c:ab:d0
-----BEGIN CERTIFICATE-----
MIIDNDCCAhygAwIBAgIBATANBgkqhkiG9w0BAQsFADA/MQswCQYDVQQGEwJDSDEN
MAsGA1UEBwwEQmVybjEMMAoGA1UECgwDU0JCMRMwEQYDVQQDDAp3d3cuc2JiLmNo
MB4XDTIzMDUxMDExMjAxMloXDTI2MDIwMzExMjAxMlowPzELMAkGA1UEBhMCQ0gx
DTALBgNVBAcMBEJlcm4xDDAKBgNVBAoMA1NCQjETMBEGA1UEAwwKd3d3LnNiYi5j
aDCCASIwDQYJKoZIhvcNAQEBBQADggEPADCCAQoCggEBAMiTsksBNoPiUbLQQyMc
7qwL0d6rU9E/bDFc2fYoKFiWdr+U6qbGzMgCZpOsvbjBcy3jbOjcLiV3OFSMOZ9G
dlNrSJg3KnyON0tmIfP/sUg99/jhZZR88AZNuRLJ32uiTRR4157j65juI0eRdq2C
XOFn9YY4CDofZaAxy09nXQLVZuuzp4bzLChwiu65XZ1YRZGVoSaC1JvLkv45Yig6
MR5XHwzf1vQsIirlktGE4cC3O1ZC3WyMvKAkYE0vV1mgD6oDiqp/UdcMT/nkDT+9
u0r8B4M/hp4RAkSBuCC3BNRJMA8VWtQoSPOi8OOQaTwKZfK5NjC2VTMXTF5Hbu8k
en8CAwEAAaM7MDkwHwYDVR0jBBgwFoAUzpvAVFn80Jz6j8emCk3lKX/M7nwwCQYD
VR0TBAIwADALBgNVHQ8EBAMCBPAwDQYJKoZIhvcNAQELBQADggEBAEPl919gnnzU
mNlGdT+5paCdDLwkdzHkeoIvcLe1jNE869oLjE8aBKWYafKhB5Isq+7OLyZnq9/C
QIgOpZAh7+MtSPitdAngf8dLY0scNZ0btW6hth0P5Xh8bTd33Wn3bD2z5bvu6bYI
3GO1zkgIuxssdOeui6w1wMzDOHoC+tWtft2Us2/3lwN+eKyic+fGHdEEYsd+e2Yg
t7wIa1BEx2AbrQIBD6gFO5rtLMWvrDx/L5zfR4XdfVAQiMJ6rszKy+2yPxT93qny
Vk19tEjFbnrb5Iu3NcPV2mJDyt3yLcqoQFyFz+np/sH3FzWOUUsWpoCrnL61+arU
eu1fJHhcq9A=
-----END CERTIFICATE-----
